; Function Attrs: mustprogress nofree norecurse nosync nounwind willreturn memory(readwrite, inaccessiblemem: none) uwtable
define void @_ZN5arrow8internal7CpuInfo13EnableFeatureElb(ptr noundef nonnull readonly align 8 captures(none) dereferenceable(8) %0, i64 noundef %1, i1 noundef zeroext %2) local_unnamed_addr #10 align 2 {
  %4 = load ptr, ptr %0, align 8, !tbaa !3
  br i1 %2, label %9, label %5

5:                                                ; preds = %3
  %6 = xor i64 %1, -1
  %7 = load i64, ptr %4, align 8, !tbaa !15
  %8 = and i64 %7, %6
  br label %_ZN5arrow8internal7CpuInfo4Impl13EnableFeatureElb.exit

9:                                                ; preds = %3
  %10 = getelementptr inbounds nuw i8, ptr %4, i64 16
  %11 = load i64, ptr %10, align 8, !tbaa !21
  %12 = and i64 %11, %1
  %13 = load i64, ptr %4, align 8, !tbaa !15
  %14 = or i64 %13, %12
  br label %_ZN5arrow8internal7CpuInfo4Impl13EnableFeatureElb.exit

_ZN5arrow8internal7CpuInfo4Impl13EnableFeatureElb.exit: ; preds = %5, %9
  %storemerge.i = phi i64 [ %8, %5 ], [ %14, %9 ]
  store i64 %storemerge.i, ptr %4, align 8, !tbaa !15
  ret void
}